target datalayout = "e-m:e-p270:32:32-p271:32:32-p272:64:64-i64:64-i128:128-f80:128-n8:16:32:64-S128"
target triple = "x86_64-pc-linux-gnu"

%"struct.Atomic::LoadImpl" = type { i8 }
%"struct.Atomic::CmpxchgImpl" = type { i8 }
%"struct.Atomic::PlatformCmpxchg" = type { i8 }
%"struct.Atomic::PlatformLoad" = type { i8 }

$_Z12jdouble_castl = comdat any

$_Z11jfloat_casti = comdat any

$_ZN6Atomic4loadIP7oopDescEET_PVKS3_ = comdat any

$_ZN8XBarrier35load_barrier_on_oop_field_preloadedEPVP7oopDescS1_ = comdat any

$_ZN8XBarrier7barrierIXadL_ZNS_25is_good_or_null_fast_pathEmEEXadL_ZNS_29load_barrier_on_oop_slow_pathEmEEEEP7oopDescPVS2_S2_ = comdat any

$_ZN8XBarrier25is_good_or_null_fast_pathEm = comdat any

$_ZN4XOop10to_addressEP7oopDesc = comdat any

$_ZN4XOop12from_addressEm = comdat any

$_ZN8XBarrier9self_healIXadL_ZNS_25is_good_or_null_fast_pathEmEEEEvPVP7oopDescmm = comdat any

$_ZN8XAddress15is_good_or_nullEm = comdat any

$_ZN8XAddress6is_badEm = comdat any

$_Z13cast_from_oopImET_P7oopDesc = comdat any

$_Z11cast_to_oopImEP7oopDescT_ = comdat any

$_ZN6Atomic7cmpxchgImmmEET_PVS1_T0_T1_19atomic_memory_order = comdat any

$_ZNK6Atomic11CmpxchgImplImmmvEclEPVmmm19atomic_memory_order = comdat any

$_ZNK6Atomic15PlatformCmpxchgILm8EEclImEET_PVS3_S3_S3_19atomic_memory_order = comdat any

$_ZNK6Atomic8LoadImplIP7oopDescNS_12PlatformLoadILm8EEEvEclEPVKS2_ = comdat any

$_ZNK6Atomic12PlatformLoadILm8EEclIP7oopDescEET_PVKS5_ = comdat any

@_ZL11min_jdouble = internal global double 0.000000e+00, align 8
@_ZL11max_jdouble = internal global double 0.000000e+00, align 8
@_ZL10min_jfloat = internal global float 0.000000e+00, align 4
@_ZL10max_jfloat = internal global float 0.000000e+00, align 4
@g_assert_poison = external global ptr, align 8
@.str = private unnamed_addr constant [49 x i8] c"src/hotspot/share/gc/x/xBarrierSetStackChunk.cpp\00", align 1
@_ZTV21XBarrierSetStackChunk = hidden unnamed_addr constant { [6 x ptr] } { [6 x ptr] [ptr null, ptr null, ptr @_ZN21XBarrierSetStackChunk14encode_gc_modeEP17stackChunkOopDescP11OopIterator, ptr @_ZN21XBarrierSetStackChunk14decode_gc_modeEP17stackChunkOopDescP11OopIterator, ptr @_ZN21XBarrierSetStackChunk8load_oopEP17stackChunkOopDescPP7oopDesc, ptr @_ZN21XBarrierSetStackChunk8load_oopEP17stackChunkOopDescP9narrowOop] }, align 8
@XAddressBadMask = external global i64, align 8
@llvm.global_ctors = appending global [1 x { i32, ptr, ptr }] [{ i32, ptr, ptr } { i32 65535, ptr @_GLOBAL__sub_I_xBarrierSetStackChunk.cpp, ptr null }]

; Function Attrs: nounwind uwtable
define internal void @__cxx_global_var_init() #0 section ".text.startup" {
  %1 = call noundef double @_Z12jdouble_castl(i64 noundef 1)
  store double %1, ptr @_ZL11min_jdouble, align 8
  ret void
}

; Function Attrs: mustprogress nounwind uwtable
define linkonce_odr hidden noundef double @_Z12jdouble_castl(i64 noundef %0) #1 comdat {
  %2 = alloca i64, align 8
  store i64 %0, ptr %2, align 8
  %3 = load double, ptr %2, align 8
  ret double %3
}

; Function Attrs: nounwind uwtable
define internal void @__cxx_global_var_init.1() #0 section ".text.startup" {
  %1 = call noundef double @_Z12jdouble_castl(i64 noundef 9218868437227405311)
  store double %1, ptr @_ZL11max_jdouble, align 8
  ret void
}

; Function Attrs: nounwind uwtable
define internal void @__cxx_global_var_init.2() #0 section ".text.startup" {
  %1 = call noundef float @_Z11jfloat_casti(i32 noundef 1)
  store float %1, ptr @_ZL10min_jfloat, align 4
  ret void
}

; Function Attrs: mustprogress nounwind uwtable
define linkonce_odr hidden noundef float @_Z11jfloat_casti(i32 noundef %0) #1 comdat {
  %2 = alloca i32, align 4
  store i32 %0, ptr %2, align 4
  %3 = load float, ptr %2, align 4
  ret float %3
}

; Function Attrs: nounwind uwtable
define internal void @__cxx_global_var_init.3() #0 section ".text.startup" {
  %1 = call noundef float @_Z11jfloat_casti(i32 noundef 2139095039)
  store float %1, ptr @_ZL10max_jfloat, align 4
  ret void
}

; Function Attrs: mustprogress nounwind uwtable
define hidden void @_ZN21XBarrierSetStackChunk14encode_gc_modeEP17stackChunkOopDescP11OopIterator(ptr noundef nonnull align 8 dereferenceable(8) %0, ptr noundef %1, ptr noundef %2) unnamed_addr #1 align 2 {
  %4 = alloca ptr, align 8
  %5 = alloca ptr, align 8
  %6 = alloca ptr, align 8
  store ptr %0, ptr %4, align 8
  store ptr %1, ptr %5, align 8
  store ptr %2, ptr %6, align 8
  ret void
}

; Function Attrs: mustprogress nounwind uwtable
define hidden void @_ZN21XBarrierSetStackChunk14decode_gc_modeEP17stackChunkOopDescP11OopIterator(ptr noundef nonnull align 8 dereferenceable(8) %0, ptr noundef %1, ptr noundef %2) unnamed_addr #1 align 2 {
  %4 = alloca ptr, align 8
  %5 = alloca ptr, align 8
  %6 = alloca ptr, align 8
  store ptr %0, ptr %4, align 8
  store ptr %1, ptr %5, align 8
  store ptr %2, ptr %6, align 8
  ret void
}

; Function Attrs: mustprogress nounwind uwtable
define hidden noundef ptr @_ZN21XBarrierSetStackChunk8load_oopEP17stackChunkOopDescPP7oopDesc(ptr noundef nonnull align 8 dereferenceable(8) %0, ptr noundef %1, ptr noundef %2) unnamed_addr #1 align 2 {
  %4 = alloca ptr, align 8
  %5 = alloca ptr, align 8
  %6 = alloca ptr, align 8
  %7 = alloca ptr, align 8
  store ptr %0, ptr %4, align 8
  store ptr %1, ptr %5, align 8
  store ptr %2, ptr %6, align 8
  %8 = load ptr, ptr %6, align 8
  %9 = call noundef ptr @_ZN6Atomic4loadIP7oopDescEET_PVKS3_(ptr noundef %8)
  store ptr %9, ptr %7, align 8
  %10 = load ptr, ptr %7, align 8
  %11 = call noundef ptr @_ZN8XBarrier35load_barrier_on_oop_field_preloadedEPVP7oopDescS1_(ptr noundef null, ptr noundef %10)
  ret ptr %11
}

; Function Attrs: mustprogress nounwind uwtable
define linkonce_odr hidden noundef ptr @_ZN6Atomic4loadIP7oopDescEET_PVKS3_(ptr noundef %0) #1 comdat align 2 {
  %2 = alloca ptr, align 8
  %3 = alloca %"struct.Atomic::LoadImpl", align 1
  store ptr %0, ptr %2, align 8
  %4 = load ptr, ptr %2, align 8
  %5 = call noundef ptr @_ZNK6Atomic8LoadImplIP7oopDescNS_12PlatformLoadILm8EEEvEclEPVKS2_(ptr noundef nonnull align 1 dereferenceable(1) %3, ptr noundef %4)
  ret ptr %5
}

; Function Attrs: mustprogress nounwind uwtable
define linkonce_odr hidden noundef ptr @_ZN8XBarrier35load_barrier_on_oop_field_preloadedEPVP7oopDescS1_(ptr noundef %0, ptr noundef %1) #1 comdat align 2 {
  %3 = alloca ptr, align 8
  %4 = alloca ptr, align 8
  store ptr %0, ptr %3, align 8
  store ptr %1, ptr %4, align 8
  %5 = load ptr, ptr %3, align 8
  %6 = load ptr, ptr %4, align 8
  %7 = call noundef ptr @_ZN8XBarrier7barrierIXadL_ZNS_25is_good_or_null_fast_pathEmEEXadL_ZNS_29load_barrier_on_oop_slow_pathEmEEEEP7oopDescPVS2_S2_(ptr noundef %5, ptr noundef %6)
  ret ptr %7
}

; Function Attrs: mustprogress nounwind uwtable
define hidden noundef ptr @_ZN21XBarrierSetStackChunk8load_oopEP17stackChunkOopDescP9narrowOop(ptr noundef nonnull align 8 dereferenceable(8) %0, ptr noundef %1, ptr noundef %2) unnamed_addr #1 align 2 {
  %4 = alloca ptr, align 8
  %5 = alloca ptr, align 8
  %6 = alloca ptr, align 8
  store ptr %0, ptr %4, align 8
  store ptr %1, ptr %5, align 8
  store ptr %2, ptr %6, align 8
  br label %7

7:                                                ; preds = %3
  %8 = load ptr, ptr @g_assert_poison, align 8
  store i8 88, ptr %8, align 1
  call void @_Z28report_should_not_reach_herePKci(ptr noundef @.str, i32 noundef 45) #4
  unreachable

9:                                                ; No predecessors!
  ret ptr null
}

; Function Attrs: noreturn
declare void @_Z28report_should_not_reach_herePKci(ptr noundef, i32 noundef) #2

; Function Attrs: mustprogress nounwind uwtable
define linkonce_odr hidden noundef ptr @_ZN8XBarrier7barrierIXadL_ZNS_25is_good_or_null_fast_pathEmEEXadL_ZNS_29load_barrier_on_oop_slow_pathEmEEEEP7oopDescPVS2_S2_(ptr noundef %0, ptr noundef %1) #1 comdat align 2 {
  %3 = alloca ptr, align 8
  %4 = alloca ptr, align 8
  %5 = alloca ptr, align 8
  %6 = alloca i64, align 8
  %7 = alloca i64, align 8
  store ptr %0, ptr %4, align 8
  store ptr %1, ptr %5, align 8
  %8 = load ptr, ptr %5, align 8
  %9 = call noundef i64 @_ZN4XOop10to_addressEP7oopDesc(ptr noundef %8)
  store i64 %9, ptr %6, align 8
  %10 = load i64, ptr %6, align 8
  %11 = call noundef zeroext i1 @_ZN8XBarrier25is_good_or_null_fast_pathEm(i64 noundef %10)
  br i1 %11, label %12, label %15

12:                                               ; preds = %2
  %13 = load i64, ptr %6, align 8
  %14 = call noundef ptr @_ZN4XOop12from_addressEm(i64 noundef %13)
  store ptr %14, ptr %3, align 8
  br label %27

15:                                               ; preds = %2
  %16 = load i64, ptr %6, align 8
  %17 = call noundef i64 @_ZN8XBarrier29load_barrier_on_oop_slow_pathEm(i64 noundef %16)
  store i64 %17, ptr %7, align 8
  %18 = load ptr, ptr %4, align 8
  %19 = icmp ne ptr %18, null
  br i1 %19, label %20, label %24

20:                                               ; preds = %15
  %21 = load ptr, ptr %4, align 8
  %22 = load i64, ptr %6, align 8
  %23 = load i64, ptr %7, align 8
  call void @_ZN8XBarrier9self_healIXadL_ZNS_25is_good_or_null_fast_pathEmEEEEvPVP7oopDescmm(ptr noundef %21, i64 noundef %22, i64 noundef %23)
  br label %24

24:                                               ; preds = %20, %15
  %25 = load i64, ptr %7, align 8
  %26 = call noundef ptr @_ZN4XOop12from_addressEm(i64 noundef %25)
  store ptr %26, ptr %3, align 8
  br label %27

27:                                               ; preds = %24, %12
  %28 = load ptr, ptr %3, align 8
  ret ptr %28
}

; Function Attrs: mustprogress nounwind uwtable
define linkonce_odr hidden noundef zeroext i1 @_ZN8XBarrier25is_good_or_null_fast_pathEm(i64 noundef %0) #1 comdat align 2 {
  %2 = alloca i64, align 8
  store i64 %0, ptr %2, align 8
  %3 = load i64, ptr %2, align 8
  %4 = call noundef zeroext i1 @_ZN8XAddress15is_good_or_nullEm(i64 noundef %3)
  ret i1 %4
}

declare noundef i64 @_ZN8XBarrier29load_barrier_on_oop_slow_pathEm(i64 noundef) #3

; Function Attrs: mustprogress nounwind uwtable
define linkonce_odr hidden noundef i64 @_ZN4XOop10to_addressEP7oopDesc(ptr noundef %0) #1 comdat align 2 {
  %2 = alloca ptr, align 8
  store ptr %0, ptr %2, align 8
  %3 = load ptr, ptr %2, align 8
  %4 = call noundef i64 @_Z13cast_from_oopImET_P7oopDesc(ptr noundef %3)
  ret i64 %4
}

; Function Attrs: mustprogress nounwind uwtable
define linkonce_odr hidden noundef ptr @_ZN4XOop12from_addressEm(i64 noundef %0) #1 comdat align 2 {
  %2 = alloca i64, align 8
  store i64 %0, ptr %2, align 8
  %3 = load i64, ptr %2, align 8
  %4 = call noundef ptr @_Z11cast_to_oopImEP7oopDescT_(i64 noundef %3)
  ret ptr %4
}

; Function Attrs: mustprogress nounwind uwtable
define linkonce_odr hidden void @_ZN8XBarrier9self_healIXadL_ZNS_25is_good_or_null_fast_pathEmEEEEvPVP7oopDescmm(ptr noundef %0, i64 noundef %1, i64 noundef %2) #1 comdat align 2 {
  %4 = alloca ptr, align 8
  %5 = alloca i64, align 8
  %6 = alloca i64, align 8
  %7 = alloca i64, align 8
  store ptr %0, ptr %4, align 8
  store i64 %1, ptr %5, align 8
  store i64 %2, ptr %6, align 8
  %8 = load i64, ptr %6, align 8
  %9 = icmp eq i64 %8, 0
  br i1 %9, label %10, label %11

10:                                               ; preds = %3
  br label %27

11:                                               ; preds = %3
  br label %12

12:                                               ; preds = %25, %11
  %13 = load ptr, ptr %4, align 8
  %14 = load i64, ptr %5, align 8
  %15 = load i64, ptr %6, align 8
  %16 = call noundef i64 @_ZN6Atomic7cmpxchgImmmEET_PVS1_T0_T1_19atomic_memory_order(ptr noundef %13, i64 noundef %14, i64 noundef %15, i32 noundef 0)
  store i64 %16, ptr %7, align 8
  %17 = load i64, ptr %7, align 8
  %18 = load i64, ptr %5, align 8
  %19 = icmp eq i64 %17, %18
  br i1 %19, label %20, label %21

20:                                               ; preds = %12
  br label %27

21:                                               ; preds = %12
  %22 = load i64, ptr %7, align 8
  %23 = call noundef zeroext i1 @_ZN8XBarrier25is_good_or_null_fast_pathEm(i64 noundef %22)
  br i1 %23, label %24, label %25

24:                                               ; preds = %21
  br label %27

25:                                               ; preds = %21
  %26 = load i64, ptr %7, align 8
  store i64 %26, ptr %5, align 8
  br label %12, !llvm.loop !6

27:                                               ; preds = %24, %20, %10
  ret void
}

; Function Attrs: mustprogress nounwind uwtable
define linkonce_odr hidden noundef zeroext i1 @_ZN8XAddress15is_good_or_nullEm(i64 noundef %0) #1 comdat align 2 {
  %2 = alloca i64, align 8
  %3 = alloca i8, align 1
  store i64 %0, ptr %2, align 8
  %4 = load i64, ptr %2, align 8
  %5 = call noundef zeroext i1 @_ZN8XAddress6is_badEm(i64 noundef %4)
  %6 = xor i1 %5, true
  %7 = zext i1 %6 to i8
  store i8 %7, ptr %3, align 1
  %8 = load i8, ptr %3, align 1
  %9 = trunc i8 %8 to i1
  ret i1 %9
}

; Function Attrs: mustprogress nounwind uwtable
define linkonce_odr hidden noundef zeroext i1 @_ZN8XAddress6is_badEm(i64 noundef %0) #1 comdat align 2 {
  %2 = alloca i64, align 8
  store i64 %0, ptr %2, align 8
  %3 = load i64, ptr %2, align 8
  %4 = load i64, ptr @XAddressBadMask, align 8
  %5 = and i64 %3, %4
  %6 = icmp ne i64 %5, 0
  ret i1 %6
}

; Function Attrs: mustprogress nounwind uwtable
define linkonce_odr hidden noundef i64 @_Z13cast_from_oopImET_P7oopDesc(ptr noundef %0) #1 comdat {
  %2 = alloca ptr, align 8
  store ptr %0, ptr %2, align 8
  %3 = load ptr, ptr %2, align 8
  %4 = ptrtoint ptr %3 to i64
  ret i64 %4
}

; Function Attrs: mustprogress nounwind uwtable
define linkonce_odr hidden noundef ptr @_Z11cast_to_oopImEP7oopDescT_(i64 noundef %0) #1 comdat {
  %2 = alloca i64, align 8
  store i64 %0, ptr %2, align 8
  %3 = load i64, ptr %2, align 8
  %4 = inttoptr i64 %3 to ptr
  ret ptr %4
}

; Function Attrs: mustprogress nounwind uwtable
define linkonce_odr hidden noundef i64 @_ZN6Atomic7cmpxchgImmmEET_PVS1_T0_T1_19atomic_memory_order(ptr noundef %0, i64 noundef %1, i64 noundef %2, i32 noundef %3) #1 comdat align 2 {
  %5 = alloca ptr, align 8
  %6 = alloca i64, align 8
  %7 = alloca i64, align 8
  %8 = alloca i32, align 4
  %9 = alloca %"struct.Atomic::CmpxchgImpl", align 1
  store ptr %0, ptr %5, align 8
  store i64 %1, ptr %6, align 8
  store i64 %2, ptr %7, align 8
  store i32 %3, ptr %8, align 4
  %10 = load ptr, ptr %5, align 8
  %11 = load i64, ptr %6, align 8
  %12 = load i64, ptr %7, align 8
  %13 = load i32, ptr %8, align 4
  %14 = call noundef i64 @_ZNK6Atomic11CmpxchgImplImmmvEclEPVmmm19atomic_memory_order(ptr noundef nonnull align 1 dereferenceable(1) %9, ptr noundef %10, i64 noundef %11, i64 noundef %12, i32 noundef %13)
  ret i64 %14
}

; Function Attrs: mustprogress nounwind uwtable
define linkonce_odr hidden noundef i64 @_ZNK6Atomic11CmpxchgImplImmmvEclEPVmmm19atomic_memory_order(ptr noundef nonnull align 1 dereferenceable(1) %0, ptr noundef %1, i64 noundef %2, i64 noundef %3, i32 noundef %4) #1 comdat align 2 {
  %6 = alloca ptr, align 8
  %7 = alloca ptr, align 8
  %8 = alloca i64, align 8
  %9 = alloca i64, align 8
  %10 = alloca i32, align 4
  %11 = alloca %"struct.Atomic::PlatformCmpxchg", align 1
  store ptr %0, ptr %6, align 8
  store ptr %1, ptr %7, align 8
  store i64 %2, ptr %8, align 8
  store i64 %3, ptr %9, align 8
  store i32 %4, ptr %10, align 4
  %12 = load ptr, ptr %7, align 8
  %13 = load i64, ptr %8, align 8
  %14 = load i64, ptr %9, align 8
  %15 = load i32, ptr %10, align 4
  %16 = call noundef i64 @_ZNK6Atomic15PlatformCmpxchgILm8EEclImEET_PVS3_S3_S3_19atomic_memory_order(ptr noundef nonnull align 1 dereferenceable(1) %11, ptr noundef %12, i64 noundef %13, i64 noundef %14, i32 noundef %15)
  ret i64 %16
}

; Function Attrs: mustprogress nounwind uwtable
define linkonce_odr hidden noundef i64 @_ZNK6Atomic15PlatformCmpxchgILm8EEclImEET_PVS3_S3_S3_19atomic_memory_order(ptr noundef nonnull align 1 dereferenceable(1) %0, ptr noundef %1, i64 noundef %2, i64 noundef %3, i32 noundef %4) #1 comdat align 2 {
  %6 = alloca ptr, align 8
  %7 = alloca ptr, align 8
  %8 = alloca i64, align 8
  %9 = alloca i64, align 8
  %10 = alloca i32, align 4
  store ptr %0, ptr %6, align 8
  store ptr %1, ptr %7, align 8
  store i64 %2, ptr %8, align 8
  store i64 %3, ptr %9, align 8
  store i32 %4, ptr %10, align 4
  %11 = load i64, ptr %9, align 8
  %12 = load i64, ptr %8, align 8
  %13 = load ptr, ptr %7, align 8
  %14 = call i64 asm sideeffect "lock cmpxchgq $1,($3)", "={ax},r,{ax},r,~{cc},~{memory},~{dirflag},~{fpsr},~{flags}"(i64 %11, i64 %12, ptr %13) #5, !srcloc !8
  store i64 %14, ptr %9, align 8
  %15 = load i64, ptr %9, align 8
  ret i64 %15
}

; Function Attrs: mustprogress nounwind uwtable
define linkonce_odr hidden noundef ptr @_ZNK6Atomic8LoadImplIP7oopDescNS_12PlatformLoadILm8EEEvEclEPVKS2_(ptr noundef nonnull align 1 dereferenceable(1) %0, ptr noundef %1) #1 comdat align 2 {
  %3 = alloca ptr, align 8
  %4 = alloca ptr, align 8
  %5 = alloca %"struct.Atomic::PlatformLoad", align 1
  store ptr %0, ptr %3, align 8
  store ptr %1, ptr %4, align 8
  %6 = load ptr, ptr %4, align 8
  %7 = call noundef ptr @_ZNK6Atomic12PlatformLoadILm8EEclIP7oopDescEET_PVKS5_(ptr noundef nonnull align 1 dereferenceable(1) %5, ptr noundef %6)
  ret ptr %7
}

; Function Attrs: mustprogress nounwind uwtable
define linkonce_odr hidden noundef ptr @_ZNK6Atomic12PlatformLoadILm8EEclIP7oopDescEET_PVKS5_(ptr noundef nonnull align 1 dereferenceable(1) %0, ptr noundef %1) #1 comdat align 2 {
  %3 = alloca ptr, align 8
  %4 = alloca ptr, align 8
  store ptr %0, ptr %3, align 8
  store ptr %1, ptr %4, align 8
  %5 = load ptr, ptr %4, align 8
  %6 = load volatile ptr, ptr %5, align 8
  ret ptr %6
}

; Function Attrs: nounwind uwtable
define internal void @_GLOBAL__sub_I_xBarrierSetStackChunk.cpp() #0 section ".text.startup" {
  call void @__cxx_global_var_init()
  call void @__cxx_global_var_init.1()
  call void @__cxx_global_var_init.2()
  call void @__cxx_global_var_init.3()
  ret void
}


!llvm.module.flags = !{!0, !1, !2, !3, !4, !5}

!0 = !{i32 7, !"Dwarf Version", i32 5}
!1 = !{i32 2, !"Debug Info Version", i32 3}
!2 = !{i32 1, !"wchar_size", i32 4}
!3 = !{i32 8, !"PIC Level", i32 2}
!4 = !{i32 7, !"uwtable", i32 2}
!5 = !{i32 7, !"frame-pointer", i32 2}
!6 = distinct !{!6, !7}
!7 = !{!"llvm.loop.mustprogress"}
!8 = !{i64 2145412694}
